; Function Attrs: mustprogress nounwind uwtable
define internal fastcc noundef i32 @"_ZZL21canFoldTermCondOfLoopPN4llvm4LoopERNS_15ScalarEvolutionERNS_13DominatorTreeERKNS_8LoopInfoERKNS_19TargetTransformInfoEENK3$_0clEv"(ptr nonnull %.0.val, ptr readonly captures(none) %.8.val) unnamed_addr #0 align 2 {
  %1 = alloca i32, align 4
  %2 = alloca i32, align 4
  %.sroa.0 = alloca i32, align 4
  %3 = load i32, ptr getelementptr inbounds nuw (i8, ptr @_ZN4llvm24SCEVCheapExpansionBudgetE, i64 128), align 8
  %4 = shl i32 %3, 1
  store i32 %4, ptr %1, align 4
  %5 = load ptr, ptr %.8.val, align 8
  %6 = tail call noundef i32 @_ZN4llvm15ScalarEvolution28getSmallConstantMaxTripCountEPKNS_4LoopE(ptr noundef nonnull align 8 dereferenceable(1392) %.0.val, ptr noundef %5) #14
  store i32 %6, ptr %2, align 4
  %.not = icmp eq i32 %6, 0
  br i1 %.not, label %9, label %7

7:                                                ; preds = %0
  %8 = icmp ult i32 %6, %4
  %..i = select i1 %8, ptr %2, ptr %1
  br label %15

9:                                                ; preds = %0
  %10 = load ptr, ptr %.8.val, align 8
  %11 = tail call i64 @_ZN4llvm25getLoopEstimatedTripCountEPNS_4LoopEPj(ptr noundef %10, ptr noundef null) #14
  %.sroa.0.0.extract.trunc = trunc i64 %11 to i32
  store i32 %.sroa.0.0.extract.trunc, ptr %.sroa.0, align 4
  %12 = and i64 %11, 4294967296
  %.not3 = icmp eq i64 %12, 0
  br i1 %.not3, label %15, label %13

13:                                               ; preds = %9
  %14 = icmp ugt i32 %4, %.sroa.0.0.extract.trunc
  %..i1 = select i1 %14, ptr %.sroa.0, ptr %1
  br label %15

15:                                               ; preds = %9, %13, %7
  %.0.in = phi ptr [ %..i, %7 ], [ %..i1, %13 ], [ %1, %9 ]
  %.0 = load i32, ptr %.0.in, align 4
  ret i32 %.0
}